; ModuleID = '7/925.c'
source_filename = "7/925.c"
target datalayout = "e-m:e-p270:32:32-p271:32:32-p272:64:64-i64:64-f80:128-n8:16:32:64-S128"
target triple = "x86_64-pc-linux-gnu"

@.str = private unnamed_addr constant [9 x i8] c"%s %s %s\00", align 1
@.str.1 = private unnamed_addr constant [3 x i8] c"%c\00", align 1
@.str.2 = private unnamed_addr constant [3 x i8] c"%s\00", align 1

; Function Attrs: noinline nounwind uwtable
define dso_local i32 @main() #0 {
  %1 = alloca i32, align 4
  %2 = alloca [256 x i8], align 16
  %3 = alloca [256 x i8], align 16
  %4 = alloca [256 x i8], align 16
  %5 = alloca [256 x i8], align 16
  %6 = alloca i32, align 4
  %7 = alloca i32, align 4
  %8 = alloca i32, align 4
  store i32 0, i32* %1, align 4
  store i32 0, i32* %8, align 4
  %9 = getelementptr inbounds [256 x i8], [256 x i8]* %2, i64 0, i64 0
  %10 = getelementptr inbounds [256 x i8], [256 x i8]* %3, i64 0, i64 0
  %11 = getelementptr inbounds [256 x i8], [256 x i8]* %4, i64 0, i64 0
  %12 = call i32 (i8*, ...) @__isoc99_scanf(i8* getelementptr inbounds ([9 x i8], [9 x i8]* @.str, i64 0, i64 0), i8* %9, i8* %10, i8* %11)
  store i32 0, i32* %6, align 4
  br label %13

13:                                               ; preds = %49, %0
  %14 = load i32, i32* %6, align 4
  %15 = sext i32 %14 to i64
  %16 = getelementptr inbounds [256 x i8], [256 x i8]* %2, i64 0, i64 0
  %17 = call i64 @strlen(i8* %16) #3
  %18 = icmp ult i64 %15, %17
  br i1 %18, label %19, label %52

19:                                               ; preds = %13
  store i32 0, i32* %7, align 4
  br label %20

20:                                               ; preds = %36, %19
  %21 = load i32, i32* %7, align 4
  %22 = sext i32 %21 to i64
  %23 = getelementptr inbounds [256 x i8], [256 x i8]* %3, i64 0, i64 0
  %24 = call i64 @strlen(i8* %23) #3
  %25 = icmp ult i64 %22, %24
  br i1 %25, label %26, label %39

26:                                               ; preds = %20
  %27 = load i32, i32* %6, align 4
  %28 = load i32, i32* %7, align 4
  %29 = add nsw i32 %27, %28
  %30 = sext i32 %29 to i64
  %31 = getelementptr inbounds [256 x i8], [256 x i8]* %2, i64 0, i64 %30
  %32 = load i8, i8* %31, align 1
  %33 = load i32, i32* %7, align 4
  %34 = sext i32 %33 to i64
  %35 = getelementptr inbounds [256 x i8], [256 x i8]* %5, i64 0, i64 %34
  store i8 %32, i8* %35, align 1
  br label %36

36:                                               ; preds = %26
  %37 = load i32, i32* %7, align 4
  %38 = add nsw i32 %37, 1
  store i32 %38, i32* %7, align 4
  br label %20

39:                                               ; preds = %20
  %40 = load i32, i32* %7, align 4
  %41 = sext i32 %40 to i64
  %42 = getelementptr inbounds [256 x i8], [256 x i8]* %5, i64 0, i64 %41
  store i8 0, i8* %42, align 1
  %43 = getelementptr inbounds [256 x i8], [256 x i8]* %5, i64 0, i64 0
  %44 = getelementptr inbounds [256 x i8], [256 x i8]* %3, i64 0, i64 0
  %45 = call i32 @strcmp(i8* %43, i8* %44) #3
  %46 = icmp eq i32 %45, 0
  br i1 %46, label %47, label %48

47:                                               ; preds = %39
  store i32 1, i32* %8, align 4
  br label %52

48:                                               ; preds = %39
  br label %49

49:                                               ; preds = %48
  %50 = load i32, i32* %6, align 4
  %51 = add nsw i32 %50, 1
  store i32 %51, i32* %6, align 4
  br label %13

52:                                               ; preds = %47, %13
  %53 = load i32, i32* %8, align 4
  %54 = icmp eq i32 %53, 1
  br i1 %54, label %55, label %112

55:                                               ; preds = %52
  store i32 0, i32* %7, align 4
  br label %56

56:                                               ; preds = %67, %55
  %57 = load i32, i32* %7, align 4
  %58 = load i32, i32* %6, align 4
  %59 = icmp slt i32 %57, %58
  br i1 %59, label %60, label %70

60:                                               ; preds = %56
  %61 = load i32, i32* %7, align 4
  %62 = sext i32 %61 to i64
  %63 = getelementptr inbounds [256 x i8], [256 x i8]* %2, i64 0, i64 %62
  %64 = load i8, i8* %63, align 1
  %65 = sext i8 %64 to i32
  %66 = call i32 (i8*, ...) @printf(i8* getelementptr inbounds ([3 x i8], [3 x i8]* @.str.1, i64 0, i64 0), i32 %65)
  br label %67

67:                                               ; preds = %60
  %68 = load i32, i32* %7, align 4
  %69 = add nsw i32 %68, 1
  store i32 %69, i32* %7, align 4
  br label %56

70:                                               ; preds = %56
  store i32 0, i32* %7, align 4
  br label %71

71:                                               ; preds = %84, %70
  %72 = load i32, i32* %7, align 4
  %73 = sext i32 %72 to i64
  %74 = getelementptr inbounds [256 x i8], [256 x i8]* %4, i64 0, i64 0
  %75 = call i64 @strlen(i8* %74) #3
  %76 = icmp ult i64 %73, %75
  br i1 %76, label %77, label %87

77:                                               ; preds = %71
  %78 = load i32, i32* %7, align 4
  %79 = sext i32 %78 to i64
  %80 = getelementptr inbounds [256 x i8], [256 x i8]* %4, i64 0, i64 %79
  %81 = load i8, i8* %80, align 1
  %82 = sext i8 %81 to i32
  %83 = call i32 (i8*, ...) @printf(i8* getelementptr inbounds ([3 x i8], [3 x i8]* @.str.1, i64 0, i64 0), i32 %82)
  br label %84

84:                                               ; preds = %77
  %85 = load i32, i32* %7, align 4
  %86 = add nsw i32 %85, 1
  store i32 %86, i32* %7, align 4
  br label %71

87:                                               ; preds = %71
  %88 = load i32, i32* %6, align 4
  %89 = sext i32 %88 to i64
  %90 = getelementptr inbounds [256 x i8], [256 x i8]* %3, i64 0, i64 0
  %91 = call i64 @strlen(i8* %90) #3
  %92 = add i64 %89, %91
  %93 = trunc i64 %92 to i32
  store i32 %93, i32* %7, align 4
  br label %94

94:                                               ; preds = %108, %87
  %95 = load i32, i32* %7, align 4
  %96 = sext i32 %95 to i64
  %97 = getelementptr inbounds [256 x i8], [256 x i8]* %2, i64 0, i64 %96
  %98 = load i8, i8* %97, align 1
  %99 = sext i8 %98 to i32
  %100 = icmp ne i32 %99, 0
  br i1 %100, label %101, label %111

101:                                              ; preds = %94
  %102 = load i32, i32* %7, align 4
  %103 = sext i32 %102 to i64
  %104 = getelementptr inbounds [256 x i8], [256 x i8]* %2, i64 0, i64 %103
  %105 = load i8, i8* %104, align 1
  %106 = sext i8 %105 to i32
  %107 = call i32 (i8*, ...) @printf(i8* getelementptr inbounds ([3 x i8], [3 x i8]* @.str.1, i64 0, i64 0), i32 %106)
  br label %108

108:                                              ; preds = %101
  %109 = load i32, i32* %7, align 4
  %110 = add nsw i32 %109, 1
  store i32 %110, i32* %7, align 4
  br label %94

111:                                              ; preds = %94
  br label %115

112:                                              ; preds = %52
  %113 = getelementptr inbounds [256 x i8], [256 x i8]* %2, i64 0, i64 0
  %114 = call i32 (i8*, ...) @printf(i8* getelementptr inbounds ([3 x i8], [3 x i8]* @.str.2, i64 0, i64 0), i8* %113)
  br label %115

115:                                              ; preds = %112, %111
  ret i32 0
}

declare dso_local i32 @__isoc99_scanf(i8*, ...) #1

; Function Attrs: nounwind readonly
declare dso_local i64 @strlen(i8*) #2

; Function Attrs: nounwind readonly
declare dso_local i32 @strcmp(i8*, i8*) #2

declare dso_local i32 @printf(i8*, ...) #1


!llvm.module.flags = !{!0}
!llvm.ident = !{!1}

!0 = !{i32 1, !"wchar_size", i32 4}
!1 = !{!"clang version 10.0.0-4ubuntu1 "}
